target datalayout = "e-m:e-p270:32:32-p271:32:32-p272:64:64-i64:64-i128:128-f80:128-n8:16:32:64-S128"
target triple = "x86_64-unknown-linux-gnu"

%struct.QEnumLookup = type { ptr, ptr, i32 }
%struct.ImageInfoSpecificQCow2EncryptionBase = type { i32 }
%struct.ImageInfoSpecificQCow2Encryption = type { i32, %union.anon }
%union.anon = type { %struct.QCryptoBlockInfoLUKS }
%struct.QCryptoBlockInfoLUKS = type { i32, i32, i32, i8, i32, i32, i64, i64, ptr, ptr }

@.str.10 = private unnamed_addr constant [7 x i8] c"format\00", align 1
@BlockdevQcow2EncryptionFormat_lookup = external constant %struct.QEnumLookup, align 8

; Function Attrs: nounwind sspstrong uwtable
define dso_local zeroext i1 @visit_type_BlockdevQcow2EncryptionFormat(ptr noundef %v, ptr noundef %name, ptr noundef %obj, ptr noundef %errp) #0 {
entry:
  %v.addr = alloca ptr, align 8
  %name.addr = alloca ptr, align 8
  %obj.addr = alloca ptr, align 8
  %errp.addr = alloca ptr, align 8
  %value = alloca i32, align 4
  %ok = alloca i8, align 1
  store ptr %v, ptr %v.addr, align 8
  store ptr %name, ptr %name.addr, align 8
  store ptr %obj, ptr %obj.addr, align 8
  store ptr %errp, ptr %errp.addr, align 8
  %0 = load ptr, ptr %obj.addr, align 8
  %1 = load i32, ptr %0, align 4
  store i32 %1, ptr %value, align 4
  %2 = load ptr, ptr %v.addr, align 8
  %3 = load ptr, ptr %name.addr, align 8
  %4 = load ptr, ptr %errp.addr, align 8
  %call = call zeroext i1 @visit_type_enum(ptr noundef %2, ptr noundef %3, ptr noundef %value, ptr noundef @BlockdevQcow2EncryptionFormat_lookup, ptr noundef %4)
  %frombool = zext i1 %call to i8
  store i8 %frombool, ptr %ok, align 1
  %5 = load i32, ptr %value, align 4
  %6 = load ptr, ptr %obj.addr, align 8
  store i32 %5, ptr %6, align 4
  %7 = load i8, ptr %ok, align 1
  %tobool = trunc i8 %7 to i1
  ret i1 %tobool
}

; Function Attrs: nounwind sspstrong uwtable
define dso_local zeroext i1 @visit_type_ImageInfoSpecificQCow2EncryptionBase_members(ptr noundef %v, ptr noundef %obj, ptr noundef %errp) #0 {
entry:
  %retval = alloca i1, align 1
  %v.addr = alloca ptr, align 8
  %obj.addr = alloca ptr, align 8
  %errp.addr = alloca ptr, align 8
  store ptr %v, ptr %v.addr, align 8
  store ptr %obj, ptr %obj.addr, align 8
  store ptr %errp, ptr %errp.addr, align 8
  %0 = load ptr, ptr %v.addr, align 8
  %1 = load ptr, ptr %obj.addr, align 8
  %format = getelementptr inbounds %struct.ImageInfoSpecificQCow2EncryptionBase, ptr %1, i32 0, i32 0
  %2 = load ptr, ptr %errp.addr, align 8
  %call = call zeroext i1 @visit_type_BlockdevQcow2EncryptionFormat(ptr noundef %0, ptr noundef @.str.10, ptr noundef %format, ptr noundef %2)
  br i1 %call, label %if.end, label %if.then

if.then:                                          ; preds = %entry
  store i1 false, ptr %retval, align 1
  br label %return

if.end:                                           ; preds = %entry
  store i1 true, ptr %retval, align 1
  br label %return

return:                                           ; preds = %if.end, %if.then
  %3 = load i1, ptr %retval, align 1
  ret i1 %3
}

; Function Attrs: nounwind sspstrong uwtable
define dso_local zeroext i1 @visit_type_ImageInfoSpecificQCow2Encryption_members(ptr noundef %v, ptr noundef %obj, ptr noundef %errp) #0 {
entry:
  %retval = alloca i1, align 1
  %v.addr = alloca ptr, align 8
  %obj.addr = alloca ptr, align 8
  %errp.addr = alloca ptr, align 8
  store ptr %v, ptr %v.addr, align 8
  store ptr %obj, ptr %obj.addr, align 8
  store ptr %errp, ptr %errp.addr, align 8
  %0 = load ptr, ptr %v.addr, align 8
  %1 = load ptr, ptr %obj.addr, align 8
  %2 = load ptr, ptr %errp.addr, align 8
  %call = call zeroext i1 @visit_type_ImageInfoSpecificQCow2EncryptionBase_members(ptr noundef %0, ptr noundef %1, ptr noundef %2)
  br i1 %call, label %if.end, label %if.then

if.then:                                          ; preds = %entry
  store i1 false, ptr %retval, align 1
  br label %return

if.end:                                           ; preds = %entry
  %3 = load ptr, ptr %obj.addr, align 8
  %format = getelementptr inbounds %struct.ImageInfoSpecificQCow2Encryption, ptr %3, i32 0, i32 0
  %4 = load i32, ptr %format, align 8
  switch i32 %4, label %sw.default [
    i32 1, label %sw.bb
    i32 0, label %sw.bb2
  ]

sw.bb:                                            ; preds = %if.end
  %5 = load ptr, ptr %v.addr, align 8
  %6 = load ptr, ptr %obj.addr, align 8
  %u = getelementptr inbounds %struct.ImageInfoSpecificQCow2Encryption, ptr %6, i32 0, i32 1
  %7 = load ptr, ptr %errp.addr, align 8
  %call1 = call zeroext i1 @visit_type_QCryptoBlockInfoLUKS_members(ptr noundef %5, ptr noundef %u, ptr noundef %7)
  store i1 %call1, ptr %retval, align 1
  br label %return

sw.bb2:                                           ; preds = %if.end
  br label %sw.epilog

sw.default:                                       ; preds = %if.end
  call void @abort() #3
  unreachable

sw.epilog:                                        ; preds = %sw.bb2
  store i1 true, ptr %retval, align 1
  br label %return

return:                                           ; preds = %sw.epilog, %sw.bb, %if.then
  %8 = load i1, ptr %retval, align 1
  ret i1 %8
}