; Function Attrs: nounwind sspstrong uwtable
define dso_local zeroext i1 @visit_type_ImageInfoSpecificQCow2Encryption_members(ptr noundef %v, ptr noundef %obj, ptr noundef %errp) local_unnamed_addr #0 {
entry:
  %value.i.i = alloca i32, align 4
  call void @llvm.lifetime.start.p0(i64 4, ptr nonnull %value.i.i)
  %0 = load i32, ptr %obj, align 4
  store i32 %0, ptr %value.i.i, align 4
  %call.i.i = call zeroext i1 @visit_type_enum(ptr noundef %v, ptr noundef nonnull @.str.10, ptr noundef nonnull %value.i.i, ptr noundef nonnull @BlockdevQcow2EncryptionFormat_lookup, ptr noundef %errp) #5
  %1 = load i32, ptr %value.i.i, align 4
  store i32 %1, ptr %obj, align 4
  call void @llvm.lifetime.end.p0(i64 4, ptr nonnull %value.i.i)
  br i1 %call.i.i, label %if.end, label %return

if.end:                                           ; preds = %entry
  switch i32 %1, label %sw.default [
    i32 1, label %sw.bb
    i32 0, label %return
  ]

sw.bb:                                            ; preds = %if.end
  %u = getelementptr inbounds nuw i8, ptr %obj, i64 8
  %call1 = call zeroext i1 @visit_type_QCryptoBlockInfoLUKS_members(ptr noundef %v, ptr noundef nonnull %u, ptr noundef %errp) #5
  br label %return

sw.default:                                       ; preds = %if.end
  call void @abort() #6
  unreachable

return:                                           ; preds = %if.end, %entry, %sw.bb
  %retval.0 = phi i1 [ %call1, %sw.bb ], [ false, %entry ], [ true, %if.end ]
  ret i1 %retval.0
}